target datalayout = "e-m:e-p270:32:32-p271:32:32-p272:64:64-i64:64-i128:128-f80:128-n8:16:32:64-S128"
target triple = "x86_64-pc-linux-gnu"

%struct.malloc_params = type { i64, i64, i64, i64, i64, i32 }
%struct.malloc_state = type { i32, i32, i64, i64, ptr, ptr, ptr, i64, i64, i64, [66 x ptr], [32 x ptr], i64, i64, i64, i32, i32, %struct.malloc_segment, ptr, i64 }
%struct.malloc_segment = type { ptr, i64, ptr, i32 }

@mparams = internal global %struct.malloc_params zeroinitializer, align 8
@_gm_ = internal global %struct.malloc_state zeroinitializer, align 8
@malloc_global_mutex = internal global i32 0, align 4

; Function Attrs: nounwind uwtable
define internal i32 @spin_acquire_lock(ptr noundef %0) #0 {
  %2 = alloca ptr, align 8
  %3 = alloca i32, align 4
  store ptr %0, ptr %2, align 8, !tbaa !16
  call void @llvm.lifetime.start.p0(i64 4, ptr %3) #9
  store i32 0, ptr %3, align 4, !tbaa !14
  br label %4

4:                                                ; preds = %21, %1
  %5 = load ptr, ptr %2, align 8, !tbaa !16
  %6 = load volatile i32, ptr %5, align 4, !tbaa !14
  %7 = icmp ne i32 %6, 0
  br i1 %7, label %12, label %8

8:                                                ; preds = %4
  %9 = load ptr, ptr %2, align 8, !tbaa !16
  %10 = atomicrmw xchg ptr %9, i32 1 seq_cst, align 4
  %11 = icmp ne i32 %10, 0
  br label %12

12:                                               ; preds = %8, %4
  %13 = phi i1 [ true, %4 ], [ %11, %8 ]
  br i1 %13, label %14, label %22

14:                                               ; preds = %12
  %15 = load i32, ptr %3, align 4, !tbaa !14
  %16 = add nsw i32 %15, 1
  store i32 %16, ptr %3, align 4, !tbaa !14
  %17 = and i32 %16, 63
  %18 = icmp eq i32 %17, 0
  br i1 %18, label %19, label %21

19:                                               ; preds = %14
  %20 = call i32 @sched_yield() #9
  br label %21

21:                                               ; preds = %19, %14
  br label %4, !llvm.loop !34

22:                                               ; preds = %12
  call void @llvm.lifetime.end.p0(i64 4, ptr %3) #9
  ret i32 0
}

; Function Attrs: nounwind uwtable
define internal i32 @init_mparams() #0 {
  %1 = alloca i64, align 8
  %2 = alloca i64, align 8
  %3 = alloca i64, align 8
  %4 = atomicrmw xchg ptr @malloc_global_mutex, i32 1 seq_cst, align 4
  %5 = icmp ne i32 %4, 0
  br i1 %5, label %6, label %8

6:                                                ; preds = %0
  %7 = call i32 @spin_acquire_lock(ptr noundef @malloc_global_mutex)
  br label %9

8:                                                ; preds = %0
  br label %9

9:                                                ; preds = %8, %6
  %10 = load i64, ptr @mparams, align 8, !tbaa !7
  %11 = icmp eq i64 %10, 0
  br i1 %11, label %12, label %37

12:                                               ; preds = %9
  call void @llvm.lifetime.start.p0(i64 8, ptr %1) #9
  call void @llvm.lifetime.start.p0(i64 8, ptr %2) #9
  call void @llvm.lifetime.start.p0(i64 8, ptr %3) #9
  %13 = call i64 @sysconf(i32 noundef 30) #9
  store i64 %13, ptr %2, align 8, !tbaa !3
  store i64 65536, ptr %3, align 8, !tbaa !3
  %14 = load i64, ptr %3, align 8, !tbaa !3
  %15 = load i64, ptr %3, align 8, !tbaa !3
  %16 = sub i64 %15, 1
  %17 = and i64 %14, %16
  %18 = icmp ne i64 %17, 0
  br i1 %18, label %25, label %19

19:                                               ; preds = %12
  %20 = load i64, ptr %2, align 8, !tbaa !3
  %21 = load i64, ptr %2, align 8, !tbaa !3
  %22 = sub i64 %21, 1
  %23 = and i64 %20, %22
  %24 = icmp ne i64 %23, 0
  br i1 %24, label %25, label %26

25:                                               ; preds = %19, %12
  call void @abort() #10
  unreachable

26:                                               ; preds = %19
  %27 = load i64, ptr %3, align 8, !tbaa !3
  store i64 %27, ptr getelementptr inbounds nuw (%struct.malloc_params, ptr @mparams, i32 0, i32 2), align 8, !tbaa !28
  %28 = load i64, ptr %2, align 8, !tbaa !3
  store i64 %28, ptr getelementptr inbounds nuw (%struct.malloc_params, ptr @mparams, i32 0, i32 1), align 8, !tbaa !29
  store i64 262144, ptr getelementptr inbounds nuw (%struct.malloc_params, ptr @mparams, i32 0, i32 3), align 8, !tbaa !30
  store i64 2097152, ptr getelementptr inbounds nuw (%struct.malloc_params, ptr @mparams, i32 0, i32 4), align 8, !tbaa !31
  store i32 7, ptr getelementptr inbounds nuw (%struct.malloc_params, ptr @mparams, i32 0, i32 5), align 8, !tbaa !32
  %29 = load i32, ptr getelementptr inbounds nuw (%struct.malloc_params, ptr @mparams, i32 0, i32 5), align 8, !tbaa !32
  store i32 %29, ptr getelementptr inbounds nuw (%struct.malloc_state, ptr @_gm_, i32 0, i32 15), align 8, !tbaa !10
  store i32 0, ptr getelementptr inbounds nuw (%struct.malloc_state, ptr @_gm_, i32 0, i32 16), align 4, !tbaa !33
  %30 = call i64 @time(ptr noundef null) #9
  %31 = xor i64 %30, 1431655765
  store i64 %31, ptr %1, align 8, !tbaa !3
  %32 = load i64, ptr %1, align 8, !tbaa !3
  %33 = or i64 %32, 8
  store i64 %33, ptr %1, align 8, !tbaa !3
  %34 = load i64, ptr %1, align 8, !tbaa !3
  %35 = and i64 %34, -8
  store i64 %35, ptr %1, align 8, !tbaa !3
  %36 = load i64, ptr %1, align 8, !tbaa !3
  store volatile i64 %36, ptr @mparams, align 8, !tbaa !3
  call void @llvm.lifetime.end.p0(i64 8, ptr %3) #9
  call void @llvm.lifetime.end.p0(i64 8, ptr %2) #9
  call void @llvm.lifetime.end.p0(i64 8, ptr %1) #9
  br label %37

37:                                               ; preds = %26, %9
  store atomic i32 0, ptr @malloc_global_mutex release, align 4
  ret i32 1
}