; Function Attrs: nounwind uwtable
define internal fastcc void @init_mparams() unnamed_addr #0 {
  %1 = atomicrmw xchg ptr @malloc_global_mutex, i32 1 seq_cst, align 4
  %.not = icmp eq i32 %1, 0
  br i1 %.not, label %spin_acquire_lock.exit, label %.preheader

.preheader:                                       ; preds = %0, %.preheader.backedge
  %.0.i = phi i32 [ %5, %.preheader.backedge ], [ 0, %0 ]
  %2 = load volatile i32, ptr @malloc_global_mutex, align 4, !tbaa !13
  %.not.i = icmp eq i32 %2, 0
  br i1 %.not.i, label %3, label %.critedge.i

3:                                                ; preds = %.preheader
  %4 = atomicrmw xchg ptr @malloc_global_mutex, i32 1 seq_cst, align 4
  %.not2.i = icmp eq i32 %4, 0
  br i1 %.not2.i, label %spin_acquire_lock.exit, label %.critedge.i

.critedge.i:                                      ; preds = %3, %.preheader
  %5 = add nuw nsw i32 %.0.i, 1
  %6 = and i32 %5, 63
  %7 = icmp eq i32 %6, 0
  br i1 %7, label %8, label %.preheader.backedge

8:                                                ; preds = %.critedge.i
  %9 = tail call i32 @sched_yield() #17
  br label %.preheader.backedge

.preheader.backedge:                              ; preds = %8, %.critedge.i
  br label %.preheader, !llvm.loop !14

spin_acquire_lock.exit:                           ; preds = %3, %0
  %10 = load i64, ptr @mparams, align 8, !tbaa !3
  %11 = icmp eq i64 %10, 0
  br i1 %11, label %12, label %20

12:                                               ; preds = %spin_acquire_lock.exit
  %13 = tail call i64 @sysconf(i32 noundef 30) #17
  %14 = tail call range(i64 0, 65) i64 @llvm.ctpop.i64(i64 %13)
  %.not9 = icmp samesign ult i64 %14, 2
  br i1 %.not9, label %16, label %15

15:                                               ; preds = %12
  tail call void @abort() #18
  unreachable

16:                                               ; preds = %12
  store i64 65536, ptr getelementptr inbounds nuw (i8, ptr @mparams, i64 16), align 8, !tbaa !30
  store i64 %13, ptr getelementptr inbounds nuw (i8, ptr @mparams, i64 8), align 8, !tbaa !31
  store i64 262144, ptr getelementptr inbounds nuw (i8, ptr @mparams, i64 24), align 8, !tbaa !32
  store i64 2097152, ptr getelementptr inbounds nuw (i8, ptr @mparams, i64 32), align 8, !tbaa !33
  store i32 7, ptr getelementptr inbounds nuw (i8, ptr @mparams, i64 40), align 8, !tbaa !34
  store i32 7, ptr getelementptr inbounds nuw (i8, ptr @_gm_, i64 880), align 8, !tbaa !9
  store i32 0, ptr getelementptr inbounds nuw (i8, ptr @_gm_, i64 884), align 4, !tbaa !35
  %17 = tail call i64 @time(ptr noundef null) #17
  %18 = and i64 %17, -16
  %19 = xor i64 %18, 1431655768
  store volatile i64 %19, ptr @mparams, align 8, !tbaa !36
  br label %20

20:                                               ; preds = %16, %spin_acquire_lock.exit
  store atomic i32 0, ptr @malloc_global_mutex release, align 4
  ret void
}